; Function Attrs: nounwind uwtable
define void @glfwMaximizeWindow(ptr noundef %0) local_unnamed_addr #0 {
  %2 = load i32, ptr @_glfw, align 8, !tbaa !138
  %.not = icmp eq i32 %2, 0
  br i1 %.not, label %3, label %4

3:                                                ; preds = %1
  tail call void (i32, ptr, ...) @_glfwInputError(i32 noundef 65537, ptr noundef null) #7
  br label %9

4:                                                ; preds = %1
  %5 = getelementptr inbounds nuw i8, ptr %0, i64 80
  %6 = load ptr, ptr %5, align 8, !tbaa !137
  %.not3 = icmp eq ptr %6, null
  br i1 %.not3, label %7, label %9

7:                                                ; preds = %4
  %8 = load ptr, ptr getelementptr inbounds nuw (i8, ptr @_glfw, i64 392), align 8, !tbaa !248
  tail call void %8(ptr noundef nonnull %0) #7
  br label %9

9:                                                ; preds = %4, %7, %3
  ret void
}